; Function Attrs: nounwind uwtable
define internal noundef i32 @_ZThn120_N4node4heap12_GLOBAL__N_118HeapSnapshotStream15WriteAsciiChunkEPci(ptr nocapture noundef %this, ptr nocapture noundef readonly %data, i32 noundef %size) unnamed_addr #16 align 2 {
entry:
  %buf.i = alloca %struct.uv_buf_t, align 8
  call void @llvm.lifetime.start.p0(i64 16, ptr nonnull %buf.i)
  %cmp.not12.i = icmp eq i32 %size, 0
  br i1 %cmp.not12.i, label %_ZN4node4heap12_GLOBAL__N_118HeapSnapshotStream15WriteAsciiChunkEPci.exit, label %while.body.lr.ph.i

while.body.lr.ph.i:                               ; preds = %entry
  %conv.i = sext i32 %size to i64
  %listener_.i.i = getelementptr inbounds i8, ptr %this, i64 -56
  %0 = getelementptr inbounds i8, ptr %buf.i, i64 8
  %cmp.i.i = icmp sgt i32 %size, 0
  %bytes_read_.i.i = getelementptr inbounds i8, ptr %this, i64 -48
  br i1 %cmp.i.i, label %while.body.us.i, label %while.body.i

while.body.us.i:                                  ; preds = %while.body.lr.ph.i, %while.body.us.i
  %len.014.us.i = phi i32 [ %sub.us.i, %while.body.us.i ], [ %size, %while.body.lr.ph.i ]
  %data.addr.013.us.i = phi ptr [ %add.ptr6.us.i, %while.body.us.i ], [ %data, %while.body.lr.ph.i ]
  %1 = load ptr, ptr %listener_.i.i, align 8
  %vtable.i.us.i = load ptr, ptr %1, align 8
  %vfn.i.us.i = getelementptr inbounds i8, ptr %vtable.i.us.i, i64 16
  %2 = load ptr, ptr %vfn.i.us.i, align 8
  %call.i.us.i = call { ptr, i64 } %2(ptr noundef nonnull align 8 dereferenceable(24) %1, i64 noundef %conv.i) #22
  %3 = extractvalue { ptr, i64 } %call.i.us.i, 0
  store ptr %3, ptr %buf.i, align 8
  %4 = extractvalue { ptr, i64 } %call.i.us.i, 1
  store i64 %4, ptr %0, align 8
  %conv2.us.i = sext i32 %len.014.us.i to i64
  %spec.select.us.i = call i64 @llvm.smin.i64(i64 %4, i64 %conv2.us.i)
  call void @llvm.memcpy.p0.p0.i64(ptr align 1 %3, ptr align 1 %data.addr.013.us.i, i64 %spec.select.us.i, i1 false)
  %add.ptr6.us.i = getelementptr inbounds i8, ptr %data.addr.013.us.i, i64 %spec.select.us.i
  %conv7.us.i = trunc i64 %spec.select.us.i to i32
  %sub.us.i = sub nsw i32 %len.014.us.i, %conv7.us.i
  %5 = load i64, ptr %bytes_read_.i.i, align 8
  %add.i.us.i = add i64 %5, %conv.i
  store i64 %add.i.us.i, ptr %bytes_read_.i.i, align 8
  %6 = load ptr, ptr %listener_.i.i, align 8
  %vtable.i10.us.i = load ptr, ptr %6, align 8
  %vfn.i11.us.i = getelementptr inbounds i8, ptr %vtable.i10.us.i, i64 24
  %7 = load ptr, ptr %vfn.i11.us.i, align 8
  call void %7(ptr noundef nonnull align 8 dereferenceable(24) %6, i64 noundef %conv.i, ptr noundef nonnull align 8 dereferenceable(16) %buf.i) #22
  %cmp.not.us.i = icmp eq i32 %sub.us.i, 0
  br i1 %cmp.not.us.i, label %_ZN4node4heap12_GLOBAL__N_118HeapSnapshotStream15WriteAsciiChunkEPci.exit, label %while.body.us.i, !llvm.loop !39

while.body.i:                                     ; preds = %while.body.lr.ph.i, %while.body.i
  %len.014.i = phi i32 [ %sub.i, %while.body.i ], [ %size, %while.body.lr.ph.i ]
  %data.addr.013.i = phi ptr [ %add.ptr6.i, %while.body.i ], [ %data, %while.body.lr.ph.i ]
  %8 = load ptr, ptr %listener_.i.i, align 8
  %vtable.i.i = load ptr, ptr %8, align 8
  %vfn.i.i = getelementptr inbounds i8, ptr %vtable.i.i, i64 16
  %9 = load ptr, ptr %vfn.i.i, align 8
  %call.i.i = call { ptr, i64 } %9(ptr noundef nonnull align 8 dereferenceable(24) %8, i64 noundef %conv.i) #22
  %10 = extractvalue { ptr, i64 } %call.i.i, 0
  store ptr %10, ptr %buf.i, align 8
  %11 = extractvalue { ptr, i64 } %call.i.i, 1
  store i64 %11, ptr %0, align 8
  %conv2.i = sext i32 %len.014.i to i64
  %spec.select.i = call i64 @llvm.smin.i64(i64 %11, i64 %conv2.i)
  call void @llvm.memcpy.p0.p0.i64(ptr align 1 %10, ptr align 1 %data.addr.013.i, i64 %spec.select.i, i1 false)
  %add.ptr6.i = getelementptr inbounds i8, ptr %data.addr.013.i, i64 %spec.select.i
  %conv7.i = trunc i64 %spec.select.i to i32
  %sub.i = sub nsw i32 %len.014.i, %conv7.i
  %12 = load ptr, ptr %listener_.i.i, align 8
  %vtable.i10.i = load ptr, ptr %12, align 8
  %vfn.i11.i = getelementptr inbounds i8, ptr %vtable.i10.i, i64 24
  %13 = load ptr, ptr %vfn.i11.i, align 8
  call void %13(ptr noundef nonnull align 8 dereferenceable(24) %12, i64 noundef %conv.i, ptr noundef nonnull align 8 dereferenceable(16) %buf.i) #22
  %cmp.not.i = icmp eq i32 %sub.i, 0
  br i1 %cmp.not.i, label %_ZN4node4heap12_GLOBAL__N_118HeapSnapshotStream15WriteAsciiChunkEPci.exit, label %while.body.i, !llvm.loop !39

_ZN4node4heap12_GLOBAL__N_118HeapSnapshotStream15WriteAsciiChunkEPci.exit: ; preds = %while.body.i, %while.body.us.i, %entry
  call void @llvm.lifetime.end.p0(i64 16, ptr nonnull %buf.i)
  ret i32 0
}